target datalayout = "e-m:e-p270:32:32-p271:32:32-p272:64:64-i64:64-i128:128-f80:128-n8:16:32:64-S128"
target triple = "x86_64-pc-linux-gnu"

%"class.net::HybridSlowStart" = type { i8, i32, i64, i64, i32, %"class.net::QuicTime::Delta" }
%"class.net::QuicTime::Delta" = type { %"class.base::TimeDelta", i64 }
%"class.base::TimeDelta" = type { i64 }

; Function Attrs: mustprogress nounwind uwtable
define noundef zeroext i1 @_ZNK3net15HybridSlowStart12IsEndOfRoundEm(ptr noundef nonnull align 8 dereferenceable(48) %0, i64 noundef %1) #2 align 2 {
  %3 = alloca ptr, align 8
  %4 = alloca i64, align 8
  store ptr %0, ptr %3, align 8, !tbaa !3
  store i64 %1, ptr %4, align 8, !tbaa !20
  %5 = load ptr, ptr %3, align 8
  %6 = getelementptr inbounds nuw %"class.net::HybridSlowStart", ptr %5, i32 0, i32 3
  %7 = load i64, ptr %6, align 8, !tbaa !18
  %8 = load i64, ptr %4, align 8, !tbaa !20
  %9 = icmp ule i64 %7, %8
  ret i1 %9
}

; Function Attrs: mustprogress uwtable
define void @_ZN3net15HybridSlowStart13OnPacketAckedEm(ptr noundef nonnull align 8 dereferenceable(48) %0, i64 noundef %1) #0 align 2 {
  %3 = alloca ptr, align 8
  %4 = alloca i64, align 8
  store ptr %0, ptr %3, align 8, !tbaa !3
  store i64 %1, ptr %4, align 8, !tbaa !20
  %5 = load ptr, ptr %3, align 8
  %6 = load i64, ptr %4, align 8, !tbaa !20
  %7 = call noundef zeroext i1 @_ZNK3net15HybridSlowStart12IsEndOfRoundEm(ptr noundef nonnull align 8 dereferenceable(48) %5, i64 noundef %6)
  br i1 %7, label %8, label %10

8:                                                ; preds = %2
  %9 = getelementptr inbounds nuw %"class.net::HybridSlowStart", ptr %5, i32 0, i32 0
  store i8 0, ptr %9, align 8, !tbaa !8
  br label %10

10:                                               ; preds = %8, %2
  ret void
}