; Function Attrs: mustprogress nofree norecurse nosync nounwind willreturn memory(argmem: readwrite) uwtable
define void @_ZN3net15HybridSlowStart13OnPacketAckedEm(ptr noundef nonnull align 8 captures(none) dereferenceable(48) %0, i64 noundef %1) local_unnamed_addr #1 align 2 {
  %3 = getelementptr inbounds nuw i8, ptr %0, i64 16
  %4 = load i64, ptr %3, align 8, !tbaa !13
  %.not = icmp ugt i64 %4, %1
  br i1 %.not, label %6, label %5

5:                                                ; preds = %2
  store i8 0, ptr %0, align 8, !tbaa !3
  br label %6

6:                                                ; preds = %5, %2
  ret void
}